
target/riscv32im-unknown-none-elf/release/simple-guest-program-rust:     file format elf32-littleriscv


Disassembly of section .text:

00011148 <_RNvCs691rhTbG0Ee_7___rustc17rust_begin_unwind>:
   11148:	0000006f          	j	11148 <_RNvCs691rhTbG0Ee_7___rustc17rust_begin_unwind>

0001114c <_start>:
   1114c:	fe010113          	add	sp,sp,-32
   11150:	00500513          	li	a0,5
   11154:	00410593          	add	a1,sp,4
   11158:	00a11223          	sh	a0,4(sp)
   1115c:	00700513          	li	a0,7
   11160:	00610593          	add	a1,sp,6
   11164:	00a11323          	sh	a0,6(sp)
   11168:	0330000f          	fence	rw,rw
   1116c:	00411503          	lh	a0,4(sp)
   11170:	0230000f          	fence	r,rw
   11174:	0330000f          	fence	rw,rw
   11178:	00611583          	lh	a1,6(sp)
   1117c:	00a58533          	add	a0,a1,a0
   11180:	01051513          	sll	a0,a0,0x10
   11184:	01055513          	srl	a0,a0,0x10
   11188:	00c00593          	li	a1,12
   1118c:	0230000f          	fence	r,rw
   11190:	00b51863          	bne	a0,a1,111a0 <_start+0x54>
   11194:	00000513          	li	a0,0
   11198:	02010113          	add	sp,sp,32
   1119c:	00008067          	ret
   111a0:	00010537          	lui	a0,0x10
   111a4:	0ec50513          	add	a0,a0,236 # 100ec <.Lanon.03f16c4052110ca29119a8ffaa795bb6.1>
   111a8:	00100593          	li	a1,1
   111ac:	00012c23          	sw	zero,24(sp)
   111b0:	00400613          	li	a2,4
   111b4:	00a12423          	sw	a0,8(sp)
   111b8:	00b12623          	sw	a1,12(sp)
   111bc:	00c12823          	sw	a2,16(sp)
   111c0:	00012a23          	sw	zero,20(sp)
   111c4:	000105b7          	lui	a1,0x10
   111c8:	10058593          	add	a1,a1,256 # 10100 <.Lanon.03f16c4052110ca29119a8ffaa795bb6.3>
   111cc:	00810513          	add	a0,sp,8
   111d0:	00000097          	auipc	ra,0x0
   111d4:	008080e7          	jalr	8(ra) # 111d8 <_ZN4core9panicking9panic_fmt17hcd8c154b4dd14503E>

000111d8 <_ZN4core9panicking9panic_fmt17hcd8c154b4dd14503E>:
   111d8:	fe010113          	add	sp,sp,-32
   111dc:	00112e23          	sw	ra,28(sp)
   111e0:	00812c23          	sw	s0,24(sp)
   111e4:	02010413          	add	s0,sp,32
   111e8:	00100613          	li	a2,1
   111ec:	fea42623          	sw	a0,-20(s0)
   111f0:	feb42823          	sw	a1,-16(s0)
   111f4:	fec41a23          	sh	a2,-12(s0)
   111f8:	fec40513          	add	a0,s0,-20
   111fc:	00000097          	auipc	ra,0x0
   11200:	f4c080e7          	jalr	-180(ra) # 11148 <_RNvCs691rhTbG0Ee_7___rustc17rust_begin_unwind>
